target datalayout = "e-m:e-p270:32:32-p271:32:32-p272:64:64-i64:64-i128:128-f80:128-n8:16:32:64-S128"
target triple = "x86_64-unknown-linux-gnu"

%"class.v8::IndirectHandleBase" = type { ptr }
%"class.node::MemoryRetainer" = type { ptr }
%"struct.std::__detail::_Hash_node_base" = type { ptr }
%"struct.std::__detail::_Prime_rehash_policy" = type { float, i64 }
%"class.v8::Global.11" = type { %"class.v8::PersistentBase.12" }
%"class.v8::PersistentBase.12" = type { %"class.v8::IndirectHandleBase" }
%"class.std::vector" = type { %"struct.std::_Vector_base" }
%"struct.std::_Vector_base" = type { %"struct.std::_Vector_base<std::__cxx11::basic_string<char>, std::allocator<std::__cxx11::basic_string<char>>>::_Vector_impl" }
%"struct.std::_Vector_base<std::__cxx11::basic_string<char>, std::allocator<std::__cxx11::basic_string<char>>>::_Vector_impl" = type { %"struct.std::_Vector_base<std::__cxx11::basic_string<char>, std::allocator<std::__cxx11::basic_string<char>>>::_Vector_impl_data" }
%"struct.std::_Vector_base<std::__cxx11::basic_string<char>, std::allocator<std::__cxx11::basic_string<char>>>::_Vector_impl_data" = type { ptr, ptr, ptr }
%"class.node::CleanupQueue" = type { %"class.node::MemoryRetainer", %"class.std::unordered_set", i64 }
%"class.std::unordered_set" = type { %"class.std::_Hashtable" }
%"class.std::_Hashtable" = type { ptr, i64, %"struct.std::__detail::_Hash_node_base", i64, %"struct.std::__detail::_Prime_rehash_policy", ptr }
%"class.node::Realm" = type { %"class.node::MemoryRetainer", %"class.std::set", %"class.std::set.0", %"class.std::set.0", %"class.std::vector", ptr, ptr, %"class.v8::Global", %"class.v8::Global.11", %"class.v8::Global.11", %"class.v8::Global.11", %"class.v8::Global.13", %"class.v8::Global.11", %"class.v8::Global.11", %"class.v8::Global.11", %"class.v8::Global.13", %"class.v8::Global.11", %"class.v8::Global.11", %"class.v8::Global.11", %"class.v8::Global.11", %"class.v8::Global.11", %"class.v8::Global.11", %"class.v8::Global.11", %"class.v8::Global.11", %"class.v8::Global.11", %"class.v8::Global.11", %"class.v8::Global.11", %"class.v8::Global.11", %"class.v8::Global.11", %"class.v8::Global.11", %"class.v8::Global.11", %"class.v8::Global.11", %"class.v8::Global.11", %"class.v8::Global.11", %"class.v8::Global.11", %"class.v8::Global.11", %"class.v8::Global.11", %"class.v8::Global.11", %"class.v8::Global.11", %"class.v8::Global.11", %"class.v8::Global.11", %"class.v8::Global.11", %"class.v8::Global.11", %"class.v8::Global.11", %"class.v8::Global.13", %"class.v8::Global.11", %"class.v8::Global.11", %"class.v8::Global.11", %"class.v8::Global.13", %"class.v8::Global.13", %"class.v8::Global.13", %"class.v8::Global.13", %"class.v8::Global.13", %"class.v8::Global.13", %"class.v8::Global.11", %"class.v8::Global.11", %"class.v8::Global.11", %"class.v8::Global.11", %"class.v8::Global.11", %"class.v8::Global.11", %"class.v8::Global.11", %"class.v8::Global.11", %"class.v8::Global.11", %"class.v8::Global.11", %"class.v8::Global.11", %"class.v8::Global.11", %"class.v8::Global.11", %"class.v8::Global.11", i32, i8, i64, i64, %"struct.std::array", %"class.node::CleanupQueue" }
%"class.std::set" = type { %"class.std::_Rb_tree" }
%"class.std::_Rb_tree" = type { %"struct.std::_Rb_tree<node::node_module *, node::node_module *, std::_Identity<node::node_module *>, std::less<node::node_module *>>::_Rb_tree_impl" }
%"struct.std::_Rb_tree<node::node_module *, node::node_module *, std::_Identity<node::node_module *>, std::less<node::node_module *>>::_Rb_tree_impl" = type { %"struct.std::_Rb_tree_key_compare", %"struct.std::_Rb_tree_header" }
%"struct.std::_Rb_tree_key_compare" = type { %"struct.std::less" }
%"struct.std::less" = type { i8 }
%"struct.std::_Rb_tree_header" = type { %"struct.std::_Rb_tree_node_base", i64 }
%"struct.std::_Rb_tree_node_base" = type { i32, ptr, ptr, ptr }
%"class.std::set.0" = type { %"class.std::_Rb_tree.1" }
%"class.std::_Rb_tree.1" = type { %"struct.std::_Rb_tree<std::__cxx11::basic_string<char>, std::__cxx11::basic_string<char>, std::_Identity<std::__cxx11::basic_string<char>>, std::less<std::__cxx11::basic_string<char>>>::_Rb_tree_impl" }
%"struct.std::_Rb_tree<std::__cxx11::basic_string<char>, std::__cxx11::basic_string<char>, std::_Identity<std::__cxx11::basic_string<char>>, std::less<std::__cxx11::basic_string<char>>>::_Rb_tree_impl" = type { %"struct.std::_Rb_tree_key_compare.5", %"struct.std::_Rb_tree_header" }
%"struct.std::_Rb_tree_key_compare.5" = type { %"struct.std::less.6" }
%"struct.std::less.6" = type { i8 }
%"class.v8::Global" = type { %"class.v8::PersistentBase" }
%"class.v8::PersistentBase" = type { %"class.v8::IndirectHandleBase" }
%"class.v8::Global.13" = type { %"class.v8::PersistentBase.14" }
%"class.v8::PersistentBase.14" = type { %"class.v8::IndirectHandleBase" }
%"struct.std::array" = type { [12 x %"class.node::BaseObjectPtrImpl"] }
%"class.node::BaseObjectPtrImpl" = type { %union.anon }
%union.anon = type { ptr }
%"class.v8::Local.274" = type { %"class.v8::LocalBase.275" }
%"class.v8::LocalBase.275" = type { %"class.v8::IndirectHandleBase" }

; Function Attrs: mustprogress nounwind uwtable
define linkonce_odr dso_local ptr @_ZN4node17PersistentToLocal6StrongIN2v88FunctionEEENS2_5LocalIT_EERKNS2_14PersistentBaseIS5_EE(ptr noundef nonnull align 8 dereferenceable(8) %persistent) #4 comdat align 2 {
entry:
  %retval = alloca %"class.v8::Local.274", align 8
  %persistent.addr = alloca ptr, align 8
  store ptr %persistent, ptr %persistent.addr, align 8
  %0 = load ptr, ptr %persistent.addr, align 8
  call void @llvm.memcpy.p0.p0.i64(ptr align 8 %retval, ptr align 8 %0, i64 8, i1 false)
  %coerce.dive = getelementptr inbounds %"class.v8::Local.274", ptr %retval, i32 0, i32 0
  %coerce.dive1 = getelementptr inbounds %"class.v8::LocalBase.275", ptr %coerce.dive, i32 0, i32 0
  %coerce.dive2 = getelementptr inbounds %"class.v8::IndirectHandleBase", ptr %coerce.dive1, i32 0, i32 0
  %1 = load ptr, ptr %coerce.dive2, align 8
  ret ptr %1
}

; Function Attrs: mustprogress nounwind uwtable
define linkonce_odr dso_local ptr @_ZN4node17PersistentToLocal4WeakIN2v88FunctionEEENS2_5LocalIT_EEPNS2_7IsolateERKNS2_14PersistentBaseIS5_EE(ptr noundef %isolate, ptr noundef nonnull align 8 dereferenceable(8) %persistent) #4 comdat align 2 {
entry:
  %slot.addr.i = alloca ptr, align 8
  %this.addr.i.i24 = alloca ptr, align 8
  %location.addr.i.i = alloca ptr, align 8
  %this.addr.i25 = alloca ptr, align 8
  %location.addr.i = alloca ptr, align 8
  %value.addr.i23 = alloca ptr, align 8
  %retval.i20 = alloca %"class.v8::LocalBase.275", align 8
  %isolate.addr.i21 = alloca ptr, align 8
  %value.addr.i22 = alloca i64, align 8
  %this.addr.i.i16 = alloca ptr, align 8
  %this.addr.i17 = alloca ptr, align 8
  %value.addr.i = alloca ptr, align 8
  %this.addr.i14 = alloca ptr, align 8
  %other.addr.i = alloca ptr, align 8
  %retval.i10 = alloca %"class.v8::LocalBase.275", align 8
  %isolate.addr.i11 = alloca ptr, align 8
  %that.addr.i12 = alloca ptr, align 8
  %this.addr.i.i = alloca ptr, align 8
  %this.addr.i = alloca ptr, align 8
  %retval.i6 = alloca %"class.v8::Local.274", align 8
  %isolate.addr.i7 = alloca ptr, align 8
  %that.addr.i8 = alloca ptr, align 8
  %ref.tmp.i = alloca %"class.v8::LocalBase.275", align 8
  %retval.i = alloca %"class.v8::Local.274", align 8
  %isolate.addr.i = alloca ptr, align 8
  %that.addr.i = alloca ptr, align 8
  %retval = alloca %"class.v8::Local.274", align 8
  %isolate.addr = alloca ptr, align 8
  %persistent.addr = alloca ptr, align 8
  store ptr %isolate, ptr %isolate.addr, align 8
  store ptr %persistent, ptr %persistent.addr, align 8
  %0 = load ptr, ptr %isolate.addr, align 8
  %1 = load ptr, ptr %persistent.addr, align 8
  store ptr %0, ptr %isolate.addr.i, align 8
  store ptr %1, ptr %that.addr.i, align 8
  %2 = load ptr, ptr %isolate.addr.i, align 8
  %3 = load ptr, ptr %that.addr.i, align 8
  store ptr %3, ptr %this.addr.i, align 8
  %this1.i = load ptr, ptr %this.addr.i, align 8
  store ptr %this1.i, ptr %this.addr.i.i, align 8
  %this1.i.i = load ptr, ptr %this.addr.i.i, align 8
  %4 = load ptr, ptr %this1.i.i, align 8
  store ptr %4, ptr %slot.addr.i, align 8
  %5 = load ptr, ptr %slot.addr.i, align 8
  store ptr %2, ptr %isolate.addr.i7, align 8
  store ptr %5, ptr %that.addr.i8, align 8
  %6 = load ptr, ptr %isolate.addr.i7, align 8
  %7 = load ptr, ptr %that.addr.i8, align 8
  store ptr %6, ptr %isolate.addr.i11, align 8
  store ptr %7, ptr %that.addr.i12, align 8
  %8 = load ptr, ptr %that.addr.i12, align 8
  store ptr %8, ptr %value.addr.i, align 8
  %9 = load ptr, ptr %value.addr.i, align 8
  %10 = ptrtoint ptr %9 to i64
  %cmp.i = icmp eq i64 %10, 0
  br i1 %cmp.i, label %if.then.i, label %if.end.i

if.then.i:                                        ; preds = %entry
  call void @llvm.memset.p0.i64(ptr align 8 %retval.i10, i8 0, i64 8, i1 false)
  store ptr %retval.i10, ptr %this.addr.i17, align 8
  %this1.i18 = load ptr, ptr %this.addr.i17, align 8
  store ptr %this1.i18, ptr %this.addr.i.i16, align 8
  %this1.i.i19 = load ptr, ptr %this.addr.i.i16, align 8
  store ptr null, ptr %this1.i.i19, align 8
  br label %_ZN2v89LocalBaseINS_8FunctionEE3NewEPNS_7IsolateEPS1_.exit

if.end.i:                                         ; preds = %entry
  %11 = load ptr, ptr %isolate.addr.i11, align 8
  %12 = load ptr, ptr %that.addr.i12, align 8
  store ptr %12, ptr %value.addr.i23, align 8
  %13 = load ptr, ptr %value.addr.i23, align 8
  %14 = load i64, ptr %13, align 8
  store ptr %11, ptr %isolate.addr.i21, align 8
  store i64 %14, ptr %value.addr.i22, align 8
  %15 = load ptr, ptr %isolate.addr.i21, align 8
  %16 = load i64, ptr %value.addr.i22, align 8
  %call.i = call noundef ptr @_ZN2v811HandleScope12CreateHandleEPNS_8internal7IsolateEm(ptr noundef %15, i64 noundef %16) #3
  store ptr %retval.i20, ptr %this.addr.i25, align 8
  store ptr %call.i, ptr %location.addr.i, align 8
  %this1.i26 = load ptr, ptr %this.addr.i25, align 8
  %17 = load ptr, ptr %location.addr.i, align 8
  store ptr %this1.i26, ptr %this.addr.i.i24, align 8
  store ptr %17, ptr %location.addr.i.i, align 8
  %this1.i.i27 = load ptr, ptr %this.addr.i.i24, align 8
  %18 = load ptr, ptr %location.addr.i.i, align 8
  store ptr %18, ptr %this1.i.i27, align 8
  %19 = load ptr, ptr %retval.i20, align 8
  store ptr %19, ptr %retval.i10, align 8
  br label %_ZN2v89LocalBaseINS_8FunctionEE3NewEPNS_7IsolateEPS1_.exit

_ZN2v89LocalBaseINS_8FunctionEE3NewEPNS_7IsolateEPS1_.exit: ; preds = %if.end.i, %if.then.i
  %20 = load ptr, ptr %retval.i10, align 8
  store ptr %20, ptr %ref.tmp.i, align 8
  store ptr %retval.i6, ptr %this.addr.i14, align 8
  store ptr %ref.tmp.i, ptr %other.addr.i, align 8
  %this1.i15 = load ptr, ptr %this.addr.i14, align 8
  %21 = load ptr, ptr %other.addr.i, align 8
  call void @llvm.memcpy.p0.p0.i64(ptr align 8 %this1.i15, ptr align 8 %21, i64 8, i1 false)
  %22 = load ptr, ptr %retval.i6, align 8
  store ptr %22, ptr %retval.i, align 8
  %23 = load ptr, ptr %retval.i, align 8
  %coerce.dive = getelementptr inbounds %"class.v8::Local.274", ptr %retval, i32 0, i32 0
  %coerce.dive1 = getelementptr inbounds %"class.v8::LocalBase.275", ptr %coerce.dive, i32 0, i32 0
  %coerce.dive2 = getelementptr inbounds %"class.v8::IndirectHandleBase", ptr %coerce.dive1, i32 0, i32 0
  store ptr %23, ptr %coerce.dive2, align 8
  %coerce.dive3 = getelementptr inbounds %"class.v8::Local.274", ptr %retval, i32 0, i32 0
  %coerce.dive4 = getelementptr inbounds %"class.v8::LocalBase.275", ptr %coerce.dive3, i32 0, i32 0
  %coerce.dive5 = getelementptr inbounds %"class.v8::IndirectHandleBase", ptr %coerce.dive4, i32 0, i32 0
  %24 = load ptr, ptr %coerce.dive5, align 8
  ret ptr %24
}

; Function Attrs: mustprogress nounwind uwtable
define linkonce_odr dso_local ptr @_ZN4node17PersistentToLocal7DefaultIN2v88FunctionEEENS2_5LocalIT_EEPNS2_7IsolateERKNS2_14PersistentBaseIS5_EE(ptr noundef %isolate, ptr noundef nonnull align 8 dereferenceable(8) %persistent) #4 comdat align 2 {
entry:
  %obj.addr.i.i = alloca ptr, align 8
  %addr.i.i = alloca ptr, align 8
  %this.addr.i4.i = alloca ptr, align 8
  %this.addr.i.i = alloca ptr, align 8
  %retval.i = alloca i1, align 1
  %this.addr.i = alloca ptr, align 8
  %retval = alloca %"class.v8::Local.274", align 8
  %isolate.addr = alloca ptr, align 8
  %persistent.addr = alloca ptr, align 8
  store ptr %isolate, ptr %isolate.addr, align 8
  store ptr %persistent, ptr %persistent.addr, align 8
  %0 = load ptr, ptr %persistent.addr, align 8
  store ptr %0, ptr %this.addr.i, align 8
  %this1.i = load ptr, ptr %this.addr.i, align 8
  store ptr %this1.i, ptr %this.addr.i.i, align 8
  %this1.i.i = load ptr, ptr %this.addr.i.i, align 8
  %1 = load ptr, ptr %this1.i.i, align 8
  %cmp.i.i = icmp eq ptr %1, null
  br i1 %cmp.i.i, label %if.then.i, label %if.end.i

if.then.i:                                        ; preds = %entry
  store i1 false, ptr %retval.i, align 1
  br label %_ZNK2v814PersistentBaseINS_8FunctionEE6IsWeakEv.exit

if.end.i:                                         ; preds = %entry
  store ptr %this1.i, ptr %this.addr.i4.i, align 8
  %this1.i5.i = load ptr, ptr %this.addr.i4.i, align 8
  %2 = load ptr, ptr %this1.i5.i, align 8
  store ptr %2, ptr %obj.addr.i.i, align 8
  %3 = load ptr, ptr %obj.addr.i.i, align 8
  %add.ptr.i.i = getelementptr inbounds i8, ptr %3, i64 11
  store ptr %add.ptr.i.i, ptr %addr.i.i, align 8
  %4 = load ptr, ptr %addr.i.i, align 8
  %5 = load i8, ptr %4, align 1
  %conv.i.i = zext i8 %5 to i32
  %and.i.i = and i32 %conv.i.i, 3
  %conv1.i.i = trunc i32 %and.i.i to i8
  %conv.i = zext i8 %conv1.i.i to i32
  %cmp.i = icmp eq i32 %conv.i, 2
  store i1 %cmp.i, ptr %retval.i, align 1
  br label %_ZNK2v814PersistentBaseINS_8FunctionEE6IsWeakEv.exit

_ZNK2v814PersistentBaseINS_8FunctionEE6IsWeakEv.exit: ; preds = %if.end.i, %if.then.i
  %6 = load i1, ptr %retval.i, align 1
  br i1 %6, label %if.then, label %if.else

if.then:                                          ; preds = %_ZNK2v814PersistentBaseINS_8FunctionEE6IsWeakEv.exit
  %7 = load ptr, ptr %isolate.addr, align 8
  %8 = load ptr, ptr %persistent.addr, align 8
  %call1 = call ptr @_ZN4node17PersistentToLocal4WeakIN2v88FunctionEEENS2_5LocalIT_EEPNS2_7IsolateERKNS2_14PersistentBaseIS5_EE(ptr noundef %7, ptr noundef nonnull align 8 dereferenceable(8) %8)
  %coerce.dive = getelementptr inbounds %"class.v8::Local.274", ptr %retval, i32 0, i32 0
  %coerce.dive2 = getelementptr inbounds %"class.v8::LocalBase.275", ptr %coerce.dive, i32 0, i32 0
  %coerce.dive3 = getelementptr inbounds %"class.v8::IndirectHandleBase", ptr %coerce.dive2, i32 0, i32 0
  store ptr %call1, ptr %coerce.dive3, align 8
  br label %return

if.else:                                          ; preds = %_ZNK2v814PersistentBaseINS_8FunctionEE6IsWeakEv.exit
  %9 = load ptr, ptr %persistent.addr, align 8
  %call4 = call ptr @_ZN4node17PersistentToLocal6StrongIN2v88FunctionEEENS2_5LocalIT_EERKNS2_14PersistentBaseIS5_EE(ptr noundef nonnull align 8 dereferenceable(8) %9)
  %coerce.dive5 = getelementptr inbounds %"class.v8::Local.274", ptr %retval, i32 0, i32 0
  %coerce.dive6 = getelementptr inbounds %"class.v8::LocalBase.275", ptr %coerce.dive5, i32 0, i32 0
  %coerce.dive7 = getelementptr inbounds %"class.v8::IndirectHandleBase", ptr %coerce.dive6, i32 0, i32 0
  store ptr %call4, ptr %coerce.dive7, align 8
  br label %return

return:                                           ; preds = %if.else, %if.then
  %coerce.dive8 = getelementptr inbounds %"class.v8::Local.274", ptr %retval, i32 0, i32 0
  %coerce.dive9 = getelementptr inbounds %"class.v8::LocalBase.275", ptr %coerce.dive8, i32 0, i32 0
  %coerce.dive10 = getelementptr inbounds %"class.v8::IndirectHandleBase", ptr %coerce.dive9, i32 0, i32 0
  %10 = load ptr, ptr %coerce.dive10, align 8
  ret ptr %10
}

; Function Attrs: mustprogress nounwind uwtable
define dso_local ptr @_ZNK4node12shadow_realm11ShadowRealm27async_hooks_before_functionEv(ptr noundef nonnull align 8 dereferenceable(872) %this) unnamed_addr #4 align 2 {
entry:
  %retval = alloca %"class.v8::Local.274", align 8
  %this.addr = alloca ptr, align 8
  store ptr %this, ptr %this.addr, align 8
  %this1 = load ptr, ptr %this.addr, align 8
  %isolate_ = getelementptr inbounds %"class.node::Realm", ptr %this1, i32 0, i32 6
  %0 = load ptr, ptr %isolate_, align 8
  %async_hooks_before_function_ = getelementptr inbounds %"class.node::Realm", ptr %this1, i32 0, i32 9
  %call = call ptr @_ZN4node17PersistentToLocal7DefaultIN2v88FunctionEEENS2_5LocalIT_EEPNS2_7IsolateERKNS2_14PersistentBaseIS5_EE(ptr noundef %0, ptr noundef nonnull align 8 dereferenceable(8) %async_hooks_before_function_)
  %coerce.dive = getelementptr inbounds %"class.v8::Local.274", ptr %retval, i32 0, i32 0
  %coerce.dive2 = getelementptr inbounds %"class.v8::LocalBase.275", ptr %coerce.dive, i32 0, i32 0
  %coerce.dive3 = getelementptr inbounds %"class.v8::IndirectHandleBase", ptr %coerce.dive2, i32 0, i32 0
  store ptr %call, ptr %coerce.dive3, align 8
  %coerce.dive4 = getelementptr inbounds %"class.v8::Local.274", ptr %retval, i32 0, i32 0
  %coerce.dive5 = getelementptr inbounds %"class.v8::LocalBase.275", ptr %coerce.dive4, i32 0, i32 0
  %coerce.dive6 = getelementptr inbounds %"class.v8::IndirectHandleBase", ptr %coerce.dive5, i32 0, i32 0
  %1 = load ptr, ptr %coerce.dive6, align 8
  ret ptr %1
}